target datalayout = "e-m:e-p270:32:32-p271:32:32-p272:64:64-i64:64-i128:128-f80:128-n8:16:32:64-S128"
target triple = "x86_64-pc-linux-gnu"

%struct.rb_control_frame_struct = type { ptr, ptr, ptr, i64, ptr, ptr, ptr }

; Function Attrs: inlinehint nounwind sspstrong uwtable
define internal i64 @VM_ENV_FLAGS(ptr noundef %0, i64 noundef %1) #7 {
  %3 = alloca ptr, align 8
  %4 = alloca i64, align 8
  %5 = alloca i64, align 8
  store ptr %0, ptr %3, align 8, !tbaa !16
  store i64 %1, ptr %4, align 8, !tbaa !13
  call void @llvm.lifetime.start.p0(i64 8, ptr %5) #5
  %6 = load ptr, ptr %3, align 8, !tbaa !16
  %7 = getelementptr i64, ptr %6, i64 0
  %8 = load i64, ptr %7, align 8, !tbaa !13
  store i64 %8, ptr %5, align 8, !tbaa !13
  %9 = load i64, ptr %5, align 8, !tbaa !13
  %10 = load i64, ptr %4, align 8, !tbaa !13
  %11 = and i64 %9, %10
  call void @llvm.lifetime.end.p0(i64 8, ptr %5) #5
  ret i64 %11
}

; Function Attrs: inlinehint nounwind sspstrong uwtable
define internal i32 @VM_FRAME_FINISHED_P(ptr noundef %0) #7 {
  %2 = alloca ptr, align 8
  store ptr %0, ptr %2, align 8, !tbaa !48
  %3 = load ptr, ptr %2, align 8, !tbaa !48
  %4 = getelementptr inbounds nuw %struct.rb_control_frame_struct, ptr %3, i32 0, i32 4
  %5 = load ptr, ptr %4, align 8, !tbaa !75
  %6 = call i64 @VM_ENV_FLAGS(ptr noundef %5, i64 noundef 32)
  %7 = icmp ne i64 %6, 0
  %8 = zext i1 %7 to i32
  ret i32 %8
}

; Function Attrs: nounwind sspstrong uwtable
define hidden void @rb_yjit_set_exception_return(ptr noundef %0, ptr noundef %1, ptr noundef %2) #0 {
  %4 = alloca ptr, align 8
  %5 = alloca ptr, align 8
  %6 = alloca ptr, align 8
  store ptr %0, ptr %4, align 8, !tbaa !48
  store ptr %1, ptr %5, align 8, !tbaa !7
  store ptr %2, ptr %6, align 8, !tbaa !7
  %7 = load ptr, ptr %4, align 8, !tbaa !48
  %8 = call i32 @VM_FRAME_FINISHED_P(ptr noundef %7)
  %9 = icmp ne i32 %8, 0
  br i1 %9, label %10, label %14

10:                                               ; preds = %3
  %11 = load ptr, ptr %5, align 8, !tbaa !7
  %12 = load ptr, ptr %4, align 8, !tbaa !48
  %13 = getelementptr inbounds nuw %struct.rb_control_frame_struct, ptr %12, i32 0, i32 6
  store ptr %11, ptr %13, align 8, !tbaa !184
  br label %44

14:                                               ; preds = %3
  %15 = load ptr, ptr %4, align 8, !tbaa !48
  %16 = getelementptr inbounds nuw %struct.rb_control_frame_struct, ptr %15, i32 0, i32 6
  %17 = load ptr, ptr %16, align 8, !tbaa !184
  %18 = icmp ne ptr %17, null
  br i1 %18, label %19, label %39

19:                                               ; preds = %14
  br label %20

20:                                               ; preds = %35, %19
  %21 = load ptr, ptr %4, align 8, !tbaa !48
  %22 = call i32 @VM_FRAME_FINISHED_P(ptr noundef %21)
  %23 = icmp ne i32 %22, 0
  %24 = xor i1 %23, true
  br i1 %24, label %25, label %38

25:                                               ; preds = %20
  %26 = load ptr, ptr %4, align 8, !tbaa !48
  %27 = getelementptr inbounds nuw %struct.rb_control_frame_struct, ptr %26, i32 0, i32 6
  %28 = load ptr, ptr %27, align 8, !tbaa !184
  %29 = load ptr, ptr %5, align 8, !tbaa !7
  %30 = icmp eq ptr %28, %29
  br i1 %30, label %31, label %35

31:                                               ; preds = %25
  %32 = load ptr, ptr %6, align 8, !tbaa !7
  %33 = load ptr, ptr %4, align 8, !tbaa !48
  %34 = getelementptr inbounds nuw %struct.rb_control_frame_struct, ptr %33, i32 0, i32 6
  store ptr %32, ptr %34, align 8, !tbaa !184
  br label %44

35:                                               ; preds = %25
  %36 = load ptr, ptr %4, align 8, !tbaa !48
  %37 = getelementptr %struct.rb_control_frame_struct, ptr %36, i64 1
  store ptr %37, ptr %4, align 8, !tbaa !48
  br label %20, !llvm.loop !185

38:                                               ; preds = %20
  br label %43

39:                                               ; preds = %14
  %40 = load ptr, ptr %6, align 8, !tbaa !7
  %41 = load ptr, ptr %4, align 8, !tbaa !48
  %42 = getelementptr inbounds nuw %struct.rb_control_frame_struct, ptr %41, i32 0, i32 6
  store ptr %40, ptr %42, align 8, !tbaa !184
  br label %43

43:                                               ; preds = %39, %38
  br label %44

44:                                               ; preds = %31, %43, %10
  ret void
}