; Function Attrs: nofree norecurse nosync nounwind sspstrong memory(read, argmem: readwrite, inaccessiblemem: none) uwtable
define hidden void @rb_yjit_set_exception_return(ptr noundef captures(none) %0, ptr noundef %1, ptr noundef %2) local_unnamed_addr #17 {
  %4 = getelementptr i8, ptr %0, i64 32
  %.val = load ptr, ptr %4, align 8, !tbaa !56
  %.val.val = load i64, ptr %.val, align 8, !tbaa !15
  %5 = and i64 %.val.val, 32
  %.not = icmp eq i64 %5, 0
  %6 = getelementptr inbounds nuw i8, ptr %0, i64 48
  br i1 %.not, label %8, label %7

7:                                                ; preds = %3
  store ptr %1, ptr %6, align 8, !tbaa !199
  br label %.loopexit

8:                                                ; preds = %3
  %9 = load ptr, ptr %6, align 8, !tbaa !199
  %.not12 = icmp eq ptr %9, null
  br i1 %.not12, label %19, label %.lr.ph

.lr.ph:                                           ; preds = %8, %15
  %.017 = phi ptr [ %16, %15 ], [ %0, %8 ]
  %10 = getelementptr inbounds nuw i8, ptr %.017, i64 48
  %11 = load ptr, ptr %10, align 8, !tbaa !199
  %12 = icmp eq ptr %11, %1
  br i1 %12, label %13, label %15

13:                                               ; preds = %.lr.ph
  %14 = getelementptr inbounds nuw i8, ptr %.017, i64 48
  store ptr %2, ptr %14, align 8, !tbaa !199
  br label %.loopexit

15:                                               ; preds = %.lr.ph
  %16 = getelementptr i8, ptr %.017, i64 56
  %17 = getelementptr i8, ptr %.017, i64 88
  %.0.val = load ptr, ptr %17, align 8, !tbaa !56
  %.0.val.val = load i64, ptr %.0.val, align 8, !tbaa !15
  %18 = and i64 %.0.val.val, 32
  %.not13 = icmp eq i64 %18, 0
  br i1 %.not13, label %.lr.ph, label %.loopexit, !llvm.loop !200

19:                                               ; preds = %8
  store ptr %2, ptr %6, align 8, !tbaa !199
  br label %.loopexit

.loopexit:                                        ; preds = %15, %19, %13, %7
  ret void
}